; Function Attrs: mustprogress nofree norecurse nosync nounwind memory(read, argmem: readwrite, inaccessiblemem: none) uwtable
define dso_local noundef zeroext i1 @_ZN22btDeformableBodySolver11updateNodesEv(ptr noundef nonnull align 8 captures(none) dereferenceable(609) %0) local_unnamed_addr #17 align 2 {
  %2 = getelementptr inbounds nuw i8, ptr %0, i64 156
  %3 = load i32, ptr %2, align 4, !tbaa !96
  %4 = icmp sgt i32 %3, 0
  br i1 %4, label %.lr.ph, label %._crit_edge

.lr.ph:                                           ; preds = %1
  %5 = getelementptr inbounds nuw i8, ptr %0, i64 168
  %6 = load ptr, ptr %5, align 8, !tbaa !95
  %wide.trip.count = zext nneg i32 %3 to i64
  br label %9

._crit_edge:                                      ; preds = %9, %1
  %.07.lcssa = phi i32 [ 0, %1 ], [ %14, %9 ]
  %7 = getelementptr inbounds nuw i8, ptr %0, i64 20
  %8 = load i32, ptr %7, align 4, !tbaa !85
  %.not = icmp ne i32 %.07.lcssa, %8
  br i1 %.not, label %15, label %16

9:                                                ; preds = %.lr.ph, %9
  %indvars.iv = phi i64 [ 0, %.lr.ph ], [ %indvars.iv.next, %9 ]
  %.079 = phi i32 [ 0, %.lr.ph ], [ %14, %9 ]
  %10 = getelementptr inbounds nuw ptr, ptr %6, i64 %indvars.iv
  %11 = load ptr, ptr %10, align 8, !tbaa !149
  %12 = getelementptr inbounds nuw i8, ptr %11, i64 932
  %13 = load i32, ptr %12, align 4, !tbaa !151
  %14 = add nsw i32 %13, %.079
  %indvars.iv.next = add nuw nsw i64 %indvars.iv, 1
  %exitcond.not = icmp eq i64 %indvars.iv.next, %wide.trip.count
  br i1 %exitcond.not, label %._crit_edge, label %9, !llvm.loop !285

15:                                               ; preds = %._crit_edge
  store i32 %.07.lcssa, ptr %7, align 4, !tbaa !85
  br label %16

16:                                               ; preds = %._crit_edge, %15
  ret i1 %.not
}